; ModuleID = '2/1345.c'
source_filename = "2/1345.c"
target datalayout = "e-m:e-p270:32:32-p271:32:32-p272:64:64-i64:64-f80:128-n8:16:32:64-S128"
target triple = "x86_64-pc-linux-gnu"

%struct.bookst = type { i32, [26 x i8] }

@.str = private unnamed_addr constant [3 x i8] c"%d\00", align 1
@.str.1 = private unnamed_addr constant [5 x i8] c"%d%s\00", align 1
@.str.2 = private unnamed_addr constant [7 x i8] c"%c\0A%d\0A\00", align 1
@.str.3 = private unnamed_addr constant [4 x i8] c"%d\0A\00", align 1

; Function Attrs: noinline nounwind uwtable
define dso_local i32 @main() #0 {
  %1 = alloca i32, align 4
  %2 = alloca %struct.bookst*, align 8
  %3 = alloca [26 x i32], align 16
  %4 = alloca i32, align 4
  %5 = alloca i32, align 4
  %6 = alloca i32, align 4
  %7 = alloca i32, align 4
  %8 = alloca i32, align 4
  store i32 0, i32* %1, align 4
  store i32 0, i32* %7, align 4
  store i32 0, i32* %8, align 4
  store i32 0, i32* %5, align 4
  br label %9

9:                                                ; preds = %16, %0
  %10 = load i32, i32* %5, align 4
  %11 = icmp slt i32 %10, 26
  br i1 %11, label %12, label %19

12:                                               ; preds = %9
  %13 = load i32, i32* %5, align 4
  %14 = sext i32 %13 to i64
  %15 = getelementptr inbounds [26 x i32], [26 x i32]* %3, i64 0, i64 %14
  store i32 0, i32* %15, align 4
  br label %16

16:                                               ; preds = %12
  %17 = load i32, i32* %5, align 4
  %18 = add nsw i32 %17, 1
  store i32 %18, i32* %5, align 4
  br label %9

19:                                               ; preds = %9
  %20 = call i32 (i8*, ...) @__isoc99_scanf(i8* getelementptr inbounds ([3 x i8], [3 x i8]* @.str, i64 0, i64 0), i32* %4)
  %21 = load i32, i32* %4, align 4
  %22 = sext i32 %21 to i64
  %23 = mul i64 %22, 32
  %24 = call noalias i8* @malloc(i64 %23) #3
  %25 = bitcast i8* %24 to %struct.bookst*
  store %struct.bookst* %25, %struct.bookst** %2, align 8
  store i32 0, i32* %5, align 4
  br label %26

26:                                               ; preds = %75, %19
  %27 = load i32, i32* %5, align 4
  %28 = load i32, i32* %4, align 4
  %29 = icmp slt i32 %27, %28
  br i1 %29, label %30, label %78

30:                                               ; preds = %26
  %31 = load %struct.bookst*, %struct.bookst** %2, align 8
  %32 = load i32, i32* %5, align 4
  %33 = sext i32 %32 to i64
  %34 = getelementptr inbounds %struct.bookst, %struct.bookst* %31, i64 %33
  %35 = getelementptr inbounds %struct.bookst, %struct.bookst* %34, i32 0, i32 0
  %36 = load %struct.bookst*, %struct.bookst** %2, align 8
  %37 = load i32, i32* %5, align 4
  %38 = sext i32 %37 to i64
  %39 = getelementptr inbounds %struct.bookst, %struct.bookst* %36, i64 %38
  %40 = getelementptr inbounds %struct.bookst, %struct.bookst* %39, i32 0, i32 1
  %41 = getelementptr inbounds [26 x i8], [26 x i8]* %40, i64 0, i64 0
  %42 = call i32 (i8*, ...) @__isoc99_scanf(i8* getelementptr inbounds ([5 x i8], [5 x i8]* @.str.1, i64 0, i64 0), i32* %35, i8* %41)
  store i32 0, i32* %6, align 4
  br label %43

43:                                               ; preds = %71, %30
  %44 = load %struct.bookst*, %struct.bookst** %2, align 8
  %45 = load i32, i32* %5, align 4
  %46 = sext i32 %45 to i64
  %47 = getelementptr inbounds %struct.bookst, %struct.bookst* %44, i64 %46
  %48 = getelementptr inbounds %struct.bookst, %struct.bookst* %47, i32 0, i32 1
  %49 = load i32, i32* %6, align 4
  %50 = sext i32 %49 to i64
  %51 = getelementptr inbounds [26 x i8], [26 x i8]* %48, i64 0, i64 %50
  %52 = load i8, i8* %51, align 1
  %53 = sext i8 %52 to i32
  %54 = icmp ne i32 %53, 0
  br i1 %54, label %55, label %74

55:                                               ; preds = %43
  %56 = load %struct.bookst*, %struct.bookst** %2, align 8
  %57 = load i32, i32* %5, align 4
  %58 = sext i32 %57 to i64
  %59 = getelementptr inbounds %struct.bookst, %struct.bookst* %56, i64 %58
  %60 = getelementptr inbounds %struct.bookst, %struct.bookst* %59, i32 0, i32 1
  %61 = load i32, i32* %6, align 4
  %62 = sext i32 %61 to i64
  %63 = getelementptr inbounds [26 x i8], [26 x i8]* %60, i64 0, i64 %62
  %64 = load i8, i8* %63, align 1
  %65 = sext i8 %64 to i32
  %66 = sub nsw i32 %65, 65
  %67 = sext i32 %66 to i64
  %68 = getelementptr inbounds [26 x i32], [26 x i32]* %3, i64 0, i64 %67
  %69 = load i32, i32* %68, align 4
  %70 = add nsw i32 %69, 1
  store i32 %70, i32* %68, align 4
  br label %71

71:                                               ; preds = %55
  %72 = load i32, i32* %6, align 4
  %73 = add nsw i32 %72, 1
  store i32 %73, i32* %6, align 4
  br label %43

74:                                               ; preds = %43
  br label %75

75:                                               ; preds = %74
  %76 = load i32, i32* %5, align 4
  %77 = add nsw i32 %76, 1
  store i32 %77, i32* %5, align 4
  br label %26

78:                                               ; preds = %26
  store i32 0, i32* %5, align 4
  br label %79

79:                                               ; preds = %96, %78
  %80 = load i32, i32* %5, align 4
  %81 = icmp slt i32 %80, 26
  br i1 %81, label %82, label %99

82:                                               ; preds = %79
  %83 = load i32, i32* %5, align 4
  %84 = sext i32 %83 to i64
  %85 = getelementptr inbounds [26 x i32], [26 x i32]* %3, i64 0, i64 %84
  %86 = load i32, i32* %85, align 4
  %87 = load i32, i32* %7, align 4
  %88 = icmp sgt i32 %86, %87
  br i1 %88, label %89, label %95

89:                                               ; preds = %82
  %90 = load i32, i32* %5, align 4
  %91 = sext i32 %90 to i64
  %92 = getelementptr inbounds [26 x i32], [26 x i32]* %3, i64 0, i64 %91
  %93 = load i32, i32* %92, align 4
  store i32 %93, i32* %7, align 4
  %94 = load i32, i32* %5, align 4
  store i32 %94, i32* %8, align 4
  br label %95

95:                                               ; preds = %89, %82
  br label %96

96:                                               ; preds = %95
  %97 = load i32, i32* %5, align 4
  %98 = add nsw i32 %97, 1
  store i32 %98, i32* %5, align 4
  br label %79

99:                                               ; preds = %79
  %100 = load i32, i32* %8, align 4
  %101 = add nsw i32 65, %100
  %102 = load i32, i32* %7, align 4
  %103 = call i32 (i8*, ...) @printf(i8* getelementptr inbounds ([7 x i8], [7 x i8]* @.str.2, i64 0, i64 0), i32 %101, i32 %102)
  store i32 0, i32* %5, align 4
  br label %104

104:                                              ; preds = %148, %99
  %105 = load i32, i32* %5, align 4
  %106 = load i32, i32* %4, align 4
  %107 = icmp slt i32 %105, %106
  br i1 %107, label %108, label %151

108:                                              ; preds = %104
  store i32 0, i32* %6, align 4
  br label %109

109:                                              ; preds = %144, %108
  %110 = load %struct.bookst*, %struct.bookst** %2, align 8
  %111 = load i32, i32* %5, align 4
  %112 = sext i32 %111 to i64
  %113 = getelementptr inbounds %struct.bookst, %struct.bookst* %110, i64 %112
  %114 = getelementptr inbounds %struct.bookst, %struct.bookst* %113, i32 0, i32 1
  %115 = load i32, i32* %6, align 4
  %116 = sext i32 %115 to i64
  %117 = getelementptr inbounds [26 x i8], [26 x i8]* %114, i64 0, i64 %116
  %118 = load i8, i8* %117, align 1
  %119 = sext i8 %118 to i32
  %120 = icmp ne i32 %119, 0
  br i1 %120, label %121, label %147

121:                                              ; preds = %109
  %122 = load %struct.bookst*, %struct.bookst** %2, align 8
  %123 = load i32, i32* %5, align 4
  %124 = sext i32 %123 to i64
  %125 = getelementptr inbounds %struct.bookst, %struct.bookst* %122, i64 %124
  %126 = getelementptr inbounds %struct.bookst, %struct.bookst* %125, i32 0, i32 1
  %127 = load i32, i32* %6, align 4
  %128 = sext i32 %127 to i64
  %129 = getelementptr inbounds [26 x i8], [26 x i8]* %126, i64 0, i64 %128
  %130 = load i8, i8* %129, align 1
  %131 = sext i8 %130 to i32
  %132 = load i32, i32* %8, align 4
  %133 = add nsw i32 65, %132
  %134 = icmp eq i32 %131, %133
  br i1 %134, label %135, label %143

135:                                              ; preds = %121
  %136 = load %struct.bookst*, %struct.bookst** %2, align 8
  %137 = load i32, i32* %5, align 4
  %138 = sext i32 %137 to i64
  %139 = getelementptr inbounds %struct.bookst, %struct.bookst* %136, i64 %138
  %140 = getelementptr inbounds %struct.bookst, %struct.bookst* %139, i32 0, i32 0
  %141 = load i32, i32* %140, align 4
  %142 = call i32 (i8*, ...) @printf(i8* getelementptr inbounds ([4 x i8], [4 x i8]* @.str.3, i64 0, i64 0), i32 %141)
  br label %143

143:                                              ; preds = %135, %121
  br label %144

144:                                              ; preds = %143
  %145 = load i32, i32* %6, align 4
  %146 = add nsw i32 %145, 1
  store i32 %146, i32* %6, align 4
  br label %109

147:                                              ; preds = %109
  br label %148

148:                                              ; preds = %147
  %149 = load i32, i32* %5, align 4
  %150 = add nsw i32 %149, 1
  store i32 %150, i32* %5, align 4
  br label %104

151:                                              ; preds = %104
  ret i32 0
}

declare dso_local i32 @__isoc99_scanf(i8*, ...) #1

; Function Attrs: nounwind
declare dso_local noalias i8* @malloc(i64) #2

declare dso_local i32 @printf(i8*, ...) #1


!llvm.module.flags = !{!0}
!llvm.ident = !{!1}

!0 = !{i32 1, !"wchar_size", i32 4}
!1 = !{!"clang version 10.0.0-4ubuntu1 "}
